; Function Attrs: nounwind uwtable
define ptr @H5F__sfile_search(ptr noundef %0) local_unnamed_addr #1 {
  %2 = load i8, ptr @H5F_init_g, align 1, !tbaa !3, !range !7, !noundef !8
  %3 = trunc nuw i8 %2 to i1
  %4 = load i8, ptr @H5_libterm_g, align 1, !range !7
  %5 = trunc nuw i8 %4 to i1
  %not. = xor i1 %3, true
  %.not11 = select i1 %not., i1 %5, i1 false
  %.068 = load ptr, ptr @H5F_sfile_head_s, align 8
  %.not9 = icmp eq ptr %.068, null
  %or.cond = select i1 %.not11, i1 true, i1 %.not9
  br i1 %or.cond, label %.loopexit, label %.lr.ph, !prof !19

.lr.ph:                                           ; preds = %1, %12
  %.0610 = phi ptr [ %.06, %12 ], [ %.068, %1 ]
  %6 = load ptr, ptr %.0610, align 8, !tbaa !12
  %7 = load ptr, ptr %6, align 8, !tbaa !20
  %8 = tail call i32 @H5FD_cmp(ptr noundef %7, ptr noundef %0) #3
  %9 = icmp eq i32 %8, 0
  br i1 %9, label %10, label %12

10:                                               ; preds = %.lr.ph
  %11 = load ptr, ptr %.0610, align 8, !tbaa !12
  br label %.loopexit

12:                                               ; preds = %.lr.ph
  %13 = getelementptr inbounds nuw i8, ptr %.0610, i64 8
  %.06 = load ptr, ptr %13, align 8, !tbaa !17
  %.not = icmp eq ptr %.06, null
  br i1 %.not, label %.loopexit, label %.lr.ph, !llvm.loop !43

.loopexit:                                        ; preds = %12, %10, %1
  %.0 = phi ptr [ %11, %10 ], [ null, %1 ], [ null, %12 ]
  ret ptr %.0
}